target datalayout = "e-m:e-p270:32:32-p271:32:32-p272:64:64-i64:64-i128:128-f80:128-n8:16:32:64-S128"
target triple = "x86_64-pc-linux-gnu"

%struct.ic_env_s = type { ptr, ptr, ptr, ptr, ptr, ptr, ptr, ptr, ptr, ptr, ptr, ptr, ptr, i8, i8, i8, i8, i8, i8, i8, i8, i8, i8, i8, i8, i8, i64 }
%struct.tty_s = type { i32, i8, i8, i8, i8, ptr, [32 x i32], i64, [32 x i8], i64, i64, i64, %struct.termios, %struct.termios }
%struct.termios = type { i32, i32, i32, i32, i8, [32 x i8], i32, i32 }

@rpenv = internal global ptr null, align 8

; Function Attrs: nounwind uwtable
define internal zeroext i1 @tty_async_stop(ptr noundef %0) #0 {
  %2 = alloca ptr, align 8
  %3 = alloca i8, align 1
  store ptr %0, ptr %2, align 8, !tbaa !143
  call void @llvm.lifetime.start.p0(i64 1, ptr %3) #13
  store i8 3, ptr %3, align 1, !tbaa !13
  %4 = load ptr, ptr %2, align 8, !tbaa !143
  %5 = getelementptr inbounds nuw %struct.tty_s, ptr %4, i32 0, i32 0
  %6 = load i32, ptr %5, align 8, !tbaa !144
  %7 = call i32 (i32, i64, ...) @ioctl(i32 noundef %6, i64 noundef 21522, ptr noundef %3) #13
  %8 = icmp sge i32 %7, 0
  call void @llvm.lifetime.end.p0(i64 1, ptr %3) #13
  ret i1 %8
}

; Function Attrs: nounwind uwtable
define internal ptr @ic_get_env() #0 {
  %1 = load ptr, ptr @rpenv, align 8, !tbaa !65
  %2 = icmp eq ptr %1, null
  br i1 %2, label %3, label %10

3:                                                ; preds = %0
  %4 = call ptr @ic_env_create(ptr noundef null, ptr noundef null, ptr noundef null)
  store ptr %4, ptr @rpenv, align 8, !tbaa !65
  %5 = load ptr, ptr @rpenv, align 8, !tbaa !65
  %6 = icmp ne ptr %5, null
  br i1 %6, label %7, label %9

7:                                                ; preds = %3
  %8 = call i32 @atexit(ptr noundef @ic_atexit) #13
  br label %9

9:                                                ; preds = %7, %3
  br label %10

10:                                               ; preds = %9, %0
  %11 = load ptr, ptr @rpenv, align 8, !tbaa !65
  ret ptr %11
}

; Function Attrs: nounwind uwtable
define dso_local zeroext i1 @ic_async_stop() #0 {
  %1 = alloca i1, align 1
  %2 = alloca ptr, align 8
  %3 = alloca i32, align 4
  call void @llvm.lifetime.start.p0(i64 8, ptr %2) #13
  %4 = call ptr @ic_get_env()
  store ptr %4, ptr %2, align 8, !tbaa !65
  %5 = load ptr, ptr %2, align 8, !tbaa !65
  %6 = icmp eq ptr %5, null
  br i1 %6, label %7, label %8

7:                                                ; preds = %0
  store i1 false, ptr %1, align 1
  store i32 1, ptr %3, align 4
  br label %19

8:                                                ; preds = %0
  %9 = load ptr, ptr %2, align 8, !tbaa !65
  %10 = getelementptr inbounds nuw %struct.ic_env_s, ptr %9, i32 0, i32 3
  %11 = load ptr, ptr %10, align 8, !tbaa !126
  %12 = icmp eq ptr %11, null
  br i1 %12, label %13, label %14

13:                                               ; preds = %8
  store i1 false, ptr %1, align 1
  store i32 1, ptr %3, align 4
  br label %19

14:                                               ; preds = %8
  %15 = load ptr, ptr %2, align 8, !tbaa !65
  %16 = getelementptr inbounds nuw %struct.ic_env_s, ptr %15, i32 0, i32 3
  %17 = load ptr, ptr %16, align 8, !tbaa !126
  %18 = call zeroext i1 @tty_async_stop(ptr noundef %17)
  store i1 %18, ptr %1, align 1
  store i32 1, ptr %3, align 4
  br label %19

19:                                               ; preds = %14, %13, %7
  call void @llvm.lifetime.end.p0(i64 8, ptr %2) #13
  %20 = load i1, ptr %1, align 1
  ret i1 %20
}