; Function Attrs: nounwind uwtable
define dso_local zeroext i1 @ic_async_stop() local_unnamed_addr #0 {
  %1 = alloca i8, align 1
  %2 = load ptr, ptr @rpenv, align 8, !tbaa !108
  %3 = icmp eq ptr %2, null
  br i1 %3, label %4, label %ic_get_env.exit.thread6

4:                                                ; preds = %0
  %5 = tail call fastcc ptr @ic_env_create(ptr noundef null, ptr noundef null, ptr noundef null)
  store ptr %5, ptr @rpenv, align 8, !tbaa !108
  %.not.i = icmp eq ptr %5, null
  br i1 %.not.i, label %ic_get_env.exit.thread, label %ic_get_env.exit

ic_get_env.exit:                                  ; preds = %4
  %6 = tail call i32 @atexit(ptr noundef nonnull @ic_atexit) #32
  %.pre.i = load ptr, ptr @rpenv, align 8, !tbaa !108
  %7 = icmp eq ptr %.pre.i, null
  br i1 %7, label %ic_get_env.exit.thread, label %ic_get_env.exit.thread6

ic_get_env.exit.thread6:                          ; preds = %0, %ic_get_env.exit
  %8 = phi ptr [ %.pre.i, %ic_get_env.exit ], [ %2, %0 ]
  %9 = getelementptr inbounds nuw i8, ptr %8, i64 24
  %10 = load ptr, ptr %9, align 8, !tbaa !119
  %11 = icmp eq ptr %10, null
  br i1 %11, label %ic_get_env.exit.thread, label %12

12:                                               ; preds = %ic_get_env.exit.thread6
  %.val = load i32, ptr %10, align 8, !tbaa !123
  call void @llvm.lifetime.start.p0(i64 1, ptr nonnull %1) #32
  store i8 3, ptr %1, align 1, !tbaa !4
  %13 = call i32 (i32, i64, ...) @ioctl(i32 noundef %.val, i64 noundef 21522, ptr noundef nonnull %1) #32
  %14 = icmp sgt i32 %13, -1
  call void @llvm.lifetime.end.p0(i64 1, ptr nonnull %1) #32
  br label %ic_get_env.exit.thread

ic_get_env.exit.thread:                           ; preds = %4, %ic_get_env.exit.thread6, %ic_get_env.exit, %12
  %.0 = phi i1 [ %14, %12 ], [ false, %ic_get_env.exit ], [ false, %ic_get_env.exit.thread6 ], [ false, %4 ]
  ret i1 %.0
}